target datalayout = "e-m:e-p270:32:32-p271:32:32-p272:64:64-i64:64-i128:128-f80:128-n8:16:32:64-S128"
target triple = "x86_64-unknown-linux-gnu"

%"class.llvh::StringRef" = type { ptr, i64 }
%"class.hermes::SourceMapGenerator" = type { %"class.std::vector", %"class.std::vector.0", %"class.std::vector.5", %"struct.hermes::StringSetVector", %"class.std::vector.10", %"class.llvh::DenseMap.15" }
%"class.std::vector" = type { %"struct.std::_Vector_base" }
%"struct.std::_Vector_base" = type { %"struct.std::_Vector_base<std::__cxx11::basic_string<char>, std::allocator<std::__cxx11::basic_string<char>>>::_Vector_impl" }
%"struct.std::_Vector_base<std::__cxx11::basic_string<char>, std::allocator<std::__cxx11::basic_string<char>>>::_Vector_impl" = type { %"struct.std::_Vector_base<std::__cxx11::basic_string<char>, std::allocator<std::__cxx11::basic_string<char>>>::_Vector_impl_data" }
%"struct.std::_Vector_base<std::__cxx11::basic_string<char>, std::allocator<std::__cxx11::basic_string<char>>>::_Vector_impl_data" = type { ptr, ptr, ptr }
%"class.std::vector.0" = type { %"struct.std::_Vector_base.1" }
%"struct.std::_Vector_base.1" = type { %"struct.std::_Vector_base<std::vector<hermes::SourceMap::Segment>, std::allocator<std::vector<hermes::SourceMap::Segment>>>::_Vector_impl" }
%"struct.std::_Vector_base<std::vector<hermes::SourceMap::Segment>, std::allocator<std::vector<hermes::SourceMap::Segment>>>::_Vector_impl" = type { %"struct.std::_Vector_base<std::vector<hermes::SourceMap::Segment>, std::allocator<std::vector<hermes::SourceMap::Segment>>>::_Vector_impl_data" }
%"struct.std::_Vector_base<std::vector<hermes::SourceMap::Segment>, std::allocator<std::vector<hermes::SourceMap::Segment>>>::_Vector_impl_data" = type { ptr, ptr, ptr }
%"class.std::vector.5" = type { %"struct.std::_Vector_base.6" }
%"struct.std::_Vector_base.6" = type { %"struct.std::_Vector_base<std::unique_ptr<hermes::SourceMap>, std::allocator<std::unique_ptr<hermes::SourceMap>>>::_Vector_impl" }
%"struct.std::_Vector_base<std::unique_ptr<hermes::SourceMap>, std::allocator<std::unique_ptr<hermes::SourceMap>>>::_Vector_impl" = type { %"struct.std::_Vector_base<std::unique_ptr<hermes::SourceMap>, std::allocator<std::unique_ptr<hermes::SourceMap>>>::_Vector_impl_data" }
%"struct.std::_Vector_base<std::unique_ptr<hermes::SourceMap>, std::allocator<std::unique_ptr<hermes::SourceMap>>>::_Vector_impl_data" = type { ptr, ptr, ptr }
%"struct.hermes::StringSetVector" = type { %"class.std::deque", %"class.llvh::DenseMap" }
%"class.std::deque" = type { %"class.std::_Deque_base" }
%"class.std::_Deque_base" = type { %"struct.std::_Deque_base<std::__cxx11::basic_string<char>, std::allocator<std::__cxx11::basic_string<char>>>::_Deque_impl" }
%"struct.std::_Deque_base<std::__cxx11::basic_string<char>, std::allocator<std::__cxx11::basic_string<char>>>::_Deque_impl" = type { %"struct.std::_Deque_base<std::__cxx11::basic_string<char>, std::allocator<std::__cxx11::basic_string<char>>>::_Deque_impl_data" }
%"struct.std::_Deque_base<std::__cxx11::basic_string<char>, std::allocator<std::__cxx11::basic_string<char>>>::_Deque_impl_data" = type { ptr, i64, %"struct.std::_Deque_iterator", %"struct.std::_Deque_iterator" }
%"struct.std::_Deque_iterator" = type { ptr, ptr, ptr, ptr }
%"class.llvh::DenseMap" = type <{ ptr, i32, i32, i32, [4 x i8] }>
%"class.std::vector.10" = type { %"struct.std::_Vector_base.11" }
%"struct.std::_Vector_base.11" = type { %"struct.std::_Vector_base<llvh::Optional<hermes::parser::JSONSharedValue>, std::allocator<llvh::Optional<hermes::parser::JSONSharedValue>>>::_Vector_impl" }
%"struct.std::_Vector_base<llvh::Optional<hermes::parser::JSONSharedValue>, std::allocator<llvh::Optional<hermes::parser::JSONSharedValue>>>::_Vector_impl" = type { %"struct.std::_Vector_base<llvh::Optional<hermes::parser::JSONSharedValue>, std::allocator<llvh::Optional<hermes::parser::JSONSharedValue>>>::_Vector_impl_data" }
%"struct.std::_Vector_base<llvh::Optional<hermes::parser::JSONSharedValue>, std::allocator<llvh::Optional<hermes::parser::JSONSharedValue>>>::_Vector_impl_data" = type { ptr, ptr, ptr }
%"class.llvh::DenseMap.15" = type <{ ptr, i32, i32, i32, [4 x i8] }>
%"class.llvh::Optional" = type { %"struct.llvh::optional_detail::OptionalStorage" }
%"struct.llvh::optional_detail::OptionalStorage" = type { %"struct.llvh::AlignedCharArrayUnion", i8, [7 x i8] }
%"struct.llvh::AlignedCharArrayUnion" = type { %"struct.llvh::AlignedCharArray" }
%"struct.llvh::AlignedCharArray" = type { [24 x i8] }
%"class.hermes::parser::JSONSharedValue" = type { ptr, %"class.std::shared_ptr" }
%"class.std::shared_ptr" = type { %"class.std::__shared_ptr" }
%"class.std::__shared_ptr" = type { ptr, %"class.std::__shared_count" }
%"class.std::__shared_count" = type { ptr }
%"class.hermes::parser::JSONValue" = type { i32 }

; Function Attrs: mustprogress nounwind uwtable
define linkonce_odr hidden noundef ptr @_ZN4llvh8OptionalIN6hermes6parser15JSONSharedValueEE10getPointerEv(ptr noundef nonnull align 8 dereferenceable(32) %this) #0 comdat align 2 {
entry:
  %this.addr = alloca ptr, align 8
  store ptr %this, ptr %this.addr, align 8
  %this1 = load ptr, ptr %this.addr, align 8
  %Storage = getelementptr inbounds %"class.llvh::Optional", ptr %this1, i32 0, i32 0
  %storage = getelementptr inbounds %"struct.llvh::optional_detail::OptionalStorage", ptr %Storage, i32 0, i32 0
  %buffer = getelementptr inbounds %"struct.llvh::AlignedCharArray", ptr %storage, i32 0, i32 0
  %arraydecay = getelementptr inbounds [24 x i8], ptr %buffer, i64 0, i64 0
  ret ptr %arraydecay
}

; Function Attrs: mustprogress nounwind uwtable
define linkonce_odr hidden noundef nonnull align 8 dereferenceable(32) ptr @_ZN4llvh8OptionalIN6hermes6parser15JSONSharedValueEEaSERKS3_(ptr noundef nonnull align 8 dereferenceable(32) %this, ptr noundef nonnull align 8 dereferenceable(24) %y) #0 comdat align 2 {
entry:
  %this.addr = alloca ptr, align 8
  %y.addr = alloca ptr, align 8
  store ptr %this, ptr %this.addr, align 8
  store ptr %y, ptr %y.addr, align 8
  %this1 = load ptr, ptr %this.addr, align 8
  %0 = load ptr, ptr %y.addr, align 8
  %Storage = getelementptr inbounds %"class.llvh::Optional", ptr %this1, i32 0, i32 0
  %call = call noundef nonnull align 8 dereferenceable(25) ptr @_ZN4llvh15optional_detail15OptionalStorageIN6hermes6parser15JSONSharedValueELb0EEaSERKS4_(ptr noundef nonnull align 8 dereferenceable(25) %Storage, ptr noundef nonnull align 8 dereferenceable(24) %0)
  ret ptr %this1
}

; Function Attrs: mustprogress nounwind uwtable
define linkonce_odr hidden noundef nonnull align 8 dereferenceable(32) ptr @_ZNSt6vectorIN4llvh8OptionalIN6hermes6parser15JSONSharedValueEEESaIS5_EEixEm(ptr noundef nonnull align 8 dereferenceable(24) %this, i64 noundef %__n) #0 comdat align 2 {
entry:
  %this.addr = alloca ptr, align 8
  %__n.addr = alloca i64, align 8
  store ptr %this, ptr %this.addr, align 8
  store i64 %__n, ptr %__n.addr, align 8
  %this1 = load ptr, ptr %this.addr, align 8
  %_M_impl = getelementptr inbounds %"struct.std::_Vector_base.11", ptr %this1, i32 0, i32 0
  %_M_start = getelementptr inbounds %"struct.std::_Vector_base<llvh::Optional<hermes::parser::JSONSharedValue>, std::allocator<llvh::Optional<hermes::parser::JSONSharedValue>>>::_Vector_impl_data", ptr %_M_impl, i32 0, i32 0
  %0 = load ptr, ptr %_M_start, align 8
  %1 = load i64, ptr %__n.addr, align 8
  %add.ptr = getelementptr inbounds %"class.llvh::Optional", ptr %0, i64 %1
  ret ptr %add.ptr
}

; Function Attrs: mustprogress nounwind uwtable
define linkonce_odr hidden noundef i32 @_ZNK6hermes6parser9JSONValue7getKindEv(ptr noundef nonnull align 4 dereferenceable(4) %this) #0 comdat align 2 {
entry:
  %this.addr = alloca ptr, align 8
  store ptr %this, ptr %this.addr, align 8
  %this1 = load ptr, ptr %this.addr, align 8
  %kind_ = getelementptr inbounds %"class.hermes::parser::JSONValue", ptr %this1, i32 0, i32 0
  %0 = load i32, ptr %kind_, align 4
  ret i32 %0
}

; Function Attrs: mustprogress nounwind uwtable
define linkonce_odr hidden noundef ptr @_ZNK6hermes6parser15JSONSharedValueptEv(ptr noundef nonnull align 8 dereferenceable(24) %this) #0 comdat align 2 {
entry:
  %this.addr = alloca ptr, align 8
  store ptr %this, ptr %this.addr, align 8
  %this1 = load ptr, ptr %this.addr, align 8
  %value_ = getelementptr inbounds %"class.hermes::parser::JSONSharedValue", ptr %this1, i32 0, i32 0
  %0 = load ptr, ptr %value_, align 8
  ret ptr %0
}

; Function Attrs: mustprogress nounwind uwtable
define linkonce_odr hidden noundef nonnull align 8 dereferenceable(24) ptr @_ZNR4llvh8OptionalIN6hermes6parser15JSONSharedValueEE8getValueEv(ptr noundef nonnull align 8 dereferenceable(32) %this) #0 comdat align 2 {
entry:
  %this.addr = alloca ptr, align 8
  store ptr %this, ptr %this.addr, align 8
  %this1 = load ptr, ptr %this.addr, align 8
  %call = call noundef ptr @_ZN4llvh8OptionalIN6hermes6parser15JSONSharedValueEE10getPointerEv(ptr noundef nonnull align 8 dereferenceable(32) %this1)
  ret ptr %call
}

; Function Attrs: mustprogress nounwind uwtable
define linkonce_odr hidden noundef zeroext i1 @_ZNK4llvh8OptionalIN6hermes6parser15JSONSharedValueEE8hasValueEv(ptr noundef nonnull align 8 dereferenceable(32) %this) #0 comdat align 2 {
entry:
  %this.addr = alloca ptr, align 8
  store ptr %this, ptr %this.addr, align 8
  %this1 = load ptr, ptr %this.addr, align 8
  %Storage = getelementptr inbounds %"class.llvh::Optional", ptr %this1, i32 0, i32 0
  %hasVal = getelementptr inbounds %"struct.llvh::optional_detail::OptionalStorage", ptr %Storage, i32 0, i32 1
  %0 = load i8, ptr %hasVal, align 8
  %tobool = trunc i8 %0 to i1
  ret i1 %tobool
}

; Function Attrs: mustprogress nounwind uwtable
define linkonce_odr hidden noundef i64 @_ZNKSt6vectorIN4llvh8OptionalIN6hermes6parser15JSONSharedValueEEESaIS5_EE4sizeEv(ptr noundef nonnull align 8 dereferenceable(24) %this) #0 comdat align 2 {
entry:
  %this.addr = alloca ptr, align 8
  store ptr %this, ptr %this.addr, align 8
  %this1 = load ptr, ptr %this.addr, align 8
  %_M_impl = getelementptr inbounds %"struct.std::_Vector_base.11", ptr %this1, i32 0, i32 0
  %_M_finish = getelementptr inbounds %"struct.std::_Vector_base<llvh::Optional<hermes::parser::JSONSharedValue>, std::allocator<llvh::Optional<hermes::parser::JSONSharedValue>>>::_Vector_impl_data", ptr %_M_impl, i32 0, i32 1
  %0 = load ptr, ptr %_M_finish, align 8
  %_M_impl2 = getelementptr inbounds %"struct.std::_Vector_base.11", ptr %this1, i32 0, i32 0
  %_M_start = getelementptr inbounds %"struct.std::_Vector_base<llvh::Optional<hermes::parser::JSONSharedValue>, std::allocator<llvh::Optional<hermes::parser::JSONSharedValue>>>::_Vector_impl_data", ptr %_M_impl2, i32 0, i32 0
  %1 = load ptr, ptr %_M_start, align 8
  %sub.ptr.lhs.cast = ptrtoint ptr %0 to i64
  %sub.ptr.rhs.cast = ptrtoint ptr %1 to i64
  %sub.ptr.sub = sub i64 %sub.ptr.lhs.cast, %sub.ptr.rhs.cast
  %sub.ptr.div = sdiv exact i64 %sub.ptr.sub, 32
  ret i64 %sub.ptr.div
}

; Function Attrs: mustprogress nounwind uwtable
define hidden noundef i32 @_ZN6hermes18SourceMapGenerator9addSourceEN4llvh9StringRefENS1_8OptionalINS_6parser15JSONSharedValueEEE(ptr noundef nonnull align 8 dereferenceable(224) %this, ptr %filename.coerce0, i64 %filename.coerce1, ptr noundef %metadata) #0 align 2 {
entry:
  %filename = alloca %"class.llvh::StringRef", align 8
  %this.addr = alloca ptr, align 8
  %metadata.indirect_addr = alloca ptr, align 8
  %index = alloca i32, align 4
  %agg.tmp = alloca %"class.llvh::StringRef", align 8
  %0 = getelementptr inbounds { ptr, i64 }, ptr %filename, i32 0, i32 0
  store ptr %filename.coerce0, ptr %0, align 8
  %1 = getelementptr inbounds { ptr, i64 }, ptr %filename, i32 0, i32 1
  store i64 %filename.coerce1, ptr %1, align 8
  store ptr %this, ptr %this.addr, align 8
  store ptr %metadata, ptr %metadata.indirect_addr, align 8
  %this1 = load ptr, ptr %this.addr, align 8
  %filenameTable_ = getelementptr inbounds %"class.hermes::SourceMapGenerator", ptr %this1, i32 0, i32 3
  call void @llvm.memcpy.p0.p0.i64(ptr align 8 %agg.tmp, ptr align 8 %filename, i64 16, i1 false)
  %2 = getelementptr inbounds { ptr, i64 }, ptr %agg.tmp, i32 0, i32 0
  %3 = load ptr, ptr %2, align 8
  %4 = getelementptr inbounds { ptr, i64 }, ptr %agg.tmp, i32 0, i32 1
  %5 = load i64, ptr %4, align 8
  %call = call noundef i64 @_ZN6hermes15StringSetVector6insertEN4llvh9StringRefE(ptr noundef nonnull align 8 dereferenceable(104) %filenameTable_, ptr %3, i64 %5)
  %conv = trunc i64 %call to i32
  store i32 %conv, ptr %index, align 4
  %sourcesMetadata_ = getelementptr inbounds %"class.hermes::SourceMapGenerator", ptr %this1, i32 0, i32 4
  %call2 = call noundef i64 @_ZNKSt6vectorIN4llvh8OptionalIN6hermes6parser15JSONSharedValueEEESaIS5_EE4sizeEv(ptr noundef nonnull align 8 dereferenceable(24) %sourcesMetadata_) #9
  %6 = load i32, ptr %index, align 4
  %conv3 = zext i32 %6 to i64
  %cmp = icmp ule i64 %call2, %conv3
  br i1 %cmp, label %if.then, label %if.end

if.then:                                          ; preds = %entry
  %sourcesMetadata_4 = getelementptr inbounds %"class.hermes::SourceMapGenerator", ptr %this1, i32 0, i32 4
  %7 = load i32, ptr %index, align 4
  %add = add i32 %7, 1
  %conv5 = zext i32 %add to i64
  call void @_ZNSt6vectorIN4llvh8OptionalIN6hermes6parser15JSONSharedValueEEESaIS5_EE6resizeEm(ptr noundef nonnull align 8 dereferenceable(24) %sourcesMetadata_4, i64 noundef %conv5)
  br label %if.end

if.end:                                           ; preds = %if.then, %entry
  %call6 = call noundef zeroext i1 @_ZNK4llvh8OptionalIN6hermes6parser15JSONSharedValueEE8hasValueEv(ptr noundef nonnull align 8 dereferenceable(32) %metadata)
  br i1 %call6, label %land.lhs.true, label %if.end17

land.lhs.true:                                    ; preds = %if.end
  %call7 = call noundef nonnull align 8 dereferenceable(24) ptr @_ZNR4llvh8OptionalIN6hermes6parser15JSONSharedValueEE8getValueEv(ptr noundef nonnull align 8 dereferenceable(32) %metadata)
  %call8 = call noundef ptr @_ZNK6hermes6parser15JSONSharedValueptEv(ptr noundef nonnull align 8 dereferenceable(24) %call7)
  %call9 = call noundef i32 @_ZNK6hermes6parser9JSONValue7getKindEv(ptr noundef nonnull align 4 dereferenceable(4) %call8)
  %cmp10 = icmp ne i32 %call9, 5
  br i1 %cmp10, label %if.then11, label %if.end17

if.then11:                                        ; preds = %land.lhs.true
  %call12 = call noundef nonnull align 8 dereferenceable(24) ptr @_ZNR4llvh8OptionalIN6hermes6parser15JSONSharedValueEE8getValueEv(ptr noundef nonnull align 8 dereferenceable(32) %metadata)
  %sourcesMetadata_13 = getelementptr inbounds %"class.hermes::SourceMapGenerator", ptr %this1, i32 0, i32 4
  %8 = load i32, ptr %index, align 4
  %conv14 = zext i32 %8 to i64
  %call15 = call noundef nonnull align 8 dereferenceable(32) ptr @_ZNSt6vectorIN4llvh8OptionalIN6hermes6parser15JSONSharedValueEEESaIS5_EEixEm(ptr noundef nonnull align 8 dereferenceable(24) %sourcesMetadata_13, i64 noundef %conv14) #9
  %call16 = call noundef nonnull align 8 dereferenceable(32) ptr @_ZN4llvh8OptionalIN6hermes6parser15JSONSharedValueEEaSERKS3_(ptr noundef nonnull align 8 dereferenceable(32) %call15, ptr noundef nonnull align 8 dereferenceable(24) %call12)
  br label %if.end17

if.end17:                                         ; preds = %if.then11, %land.lhs.true, %if.end
  %9 = load i32, ptr %index, align 4
  ret i32 %9
}