; Function Attrs: mustprogress nounwind uwtable
define hidden noundef i32 @_ZN6hermes18SourceMapGenerator9addSourceEN4llvh9StringRefENS1_8OptionalINS_6parser15JSONSharedValueEEE(ptr noundef nonnull align 8 dereferenceable(224) %this, ptr %filename.coerce0, i64 %filename.coerce1, ptr noundef %metadata) local_unnamed_addr #0 align 2 {
entry:
  %filenameTable_ = getelementptr inbounds i8, ptr %this, i64 72
  %call = tail call noundef i64 @_ZN6hermes15StringSetVector6insertEN4llvh9StringRefE(ptr noundef nonnull align 8 dereferenceable(104) %filenameTable_, ptr %filename.coerce0, i64 %filename.coerce1)
  %sourcesMetadata_ = getelementptr inbounds i8, ptr %this, i64 176
  %_M_finish.i = getelementptr inbounds i8, ptr %this, i64 184
  %0 = load ptr, ptr %_M_finish.i, align 8
  %1 = load ptr, ptr %sourcesMetadata_, align 8
  %sub.ptr.lhs.cast.i = ptrtoint ptr %0 to i64
  %sub.ptr.rhs.cast.i = ptrtoint ptr %1 to i64
  %sub.ptr.sub.i = sub i64 %sub.ptr.lhs.cast.i, %sub.ptr.rhs.cast.i
  %sub.ptr.div.i = ashr exact i64 %sub.ptr.sub.i, 5
  %conv3 = and i64 %call, 4294967295
  %cmp.not = icmp ugt i64 %sub.ptr.div.i, %conv3
  br i1 %cmp.not, label %if.end, label %if.then

if.then:                                          ; preds = %entry
  %add = add i64 %call, 1
  %conv5 = and i64 %add, 4294967295
  tail call void @_ZNSt6vectorIN4llvh8OptionalIN6hermes6parser15JSONSharedValueEEESaIS5_EE6resizeEm(ptr noundef nonnull align 8 dereferenceable(24) %sourcesMetadata_, i64 noundef %conv5)
  br label %if.end

if.end:                                           ; preds = %if.then, %entry
  %hasVal.i = getelementptr inbounds i8, ptr %metadata, i64 24
  %2 = load i8, ptr %hasVal.i, align 8
  %3 = and i8 %2, 1
  %tobool.i.not = icmp eq i8 %3, 0
  br i1 %tobool.i.not, label %if.end17, label %land.lhs.true

land.lhs.true:                                    ; preds = %if.end
  %4 = load ptr, ptr %metadata, align 8
  %5 = load i32, ptr %4, align 4
  %cmp10.not = icmp eq i32 %5, 5
  br i1 %cmp10.not, label %if.end17, label %if.then11

if.then11:                                        ; preds = %land.lhs.true
  %6 = load ptr, ptr %sourcesMetadata_, align 8
  %add.ptr.i = getelementptr inbounds %"class.llvh::Optional", ptr %6, i64 %conv3
  %call.i = tail call noundef nonnull align 8 dereferenceable(25) ptr @_ZN4llvh15optional_detail15OptionalStorageIN6hermes6parser15JSONSharedValueELb0EEaSERKS4_(ptr noundef nonnull align 8 dereferenceable(25) %add.ptr.i, ptr noundef nonnull align 8 dereferenceable(24) %metadata)
  br label %if.end17

if.end17:                                         ; preds = %if.then11, %land.lhs.true, %if.end
  %conv = trunc i64 %call to i32
  ret i32 %conv
}